; Function Attrs: mustprogress nounwind uwtable
define dso_local noundef zeroext i1 @_ZNK4llvm23AArch64RegisterBankInfo10onlyUsesFPERKNS_12MachineInstrERKNS_19MachineRegisterInfoERKNS_18TargetRegisterInfoEj(ptr noundef nonnull align 8 dereferenceable(168) %0, ptr noundef nonnull align 8 dereferenceable(70) %1, ptr noundef nonnull align 8 dereferenceable(512) %2, ptr noundef nonnull align 8 dereferenceable(308) %3, i32 noundef %4) local_unnamed_addr #0 align 2 {
  %6 = getelementptr inbounds nuw i8, ptr %1, i64 68
  %7 = load i16, ptr %6, align 4
  switch i16 %7, label %8 [
    i16 193, label %10
    i16 194, label %10
    i16 143, label %10
    i16 220, label %10
    i16 221, label %10
  ]

8:                                                ; preds = %5
  %9 = tail call noundef zeroext i1 @_ZNK4llvm23AArch64RegisterBankInfo16hasFPConstraintsERKNS_12MachineInstrERKNS_19MachineRegisterInfoERKNS_18TargetRegisterInfoEj(ptr noundef nonnull align 8 dereferenceable(168) %0, ptr noundef nonnull align 8 dereferenceable(70) %1, ptr noundef nonnull align 8 dereferenceable(512) %2, ptr noundef nonnull align 8 dereferenceable(308) %3, i32 noundef %4)
  br label %10

10:                                               ; preds = %5, %5, %5, %5, %5, %8
  %.0 = phi i1 [ %9, %8 ], [ true, %5 ], [ true, %5 ], [ true, %5 ], [ true, %5 ], [ true, %5 ]
  ret i1 %.0
}